; Function Attrs: nounwind uwtable
define ptr @l_Lean_Elab_Tactic_evalSimpTrace___lambda__1(ptr noundef %0, ptr noundef %1, ptr noundef %2, ptr noundef %3, ptr noundef %4, ptr noundef %5, ptr noundef %6, ptr noundef %7, ptr noundef %8, ptr noundef %9, ptr noundef %10, ptr noundef %11, ptr noundef %12) local_unnamed_addr #0 {
  %14 = ptrtoint ptr %0 to i64
  %15 = and i64 %14, 1
  %.not.i = icmp eq i64 %15, 0
  br i1 %.not.i, label %19, label %16

16:                                               ; preds = %13
  %17 = lshr i64 %14, 1
  %18 = trunc i64 %17 to i32
  br label %lean_obj_tag.exit

19:                                               ; preds = %13
  %20 = getelementptr i8, ptr %0, i64 4
  %.val.i = load i32, ptr %20, align 4
  %21 = lshr i32 %.val.i, 24
  br label %lean_obj_tag.exit

lean_obj_tag.exit:                                ; preds = %16, %19
  %.0.i = phi i32 [ %18, %16 ], [ %21, %19 ]
  %22 = icmp eq i32 %.0.i, 0
  br i1 %22, label %23, label %25

23:                                               ; preds = %lean_obj_tag.exit
  %24 = load ptr, ptr @l_Lean_Elab_Tactic_evalSimpTrace___lambda__1___closed__2, align 8, !tbaa !9
  br label %29

25:                                               ; preds = %lean_obj_tag.exit
  %26 = getelementptr inbounds nuw i8, ptr %0, i64 8
  %27 = load ptr, ptr %26, align 8, !tbaa !9
  %28 = tail call ptr @l_Lean_Elab_Tactic_expandLocation(ptr noundef %27) #5
  br label %29

29:                                               ; preds = %25, %23
  %.sink = phi ptr [ %28, %25 ], [ %24, %23 ]
  %30 = tail call ptr @l_Lean_Elab_Tactic_simpLocation(ptr noundef %1, ptr noundef %2, ptr noundef %3, ptr noundef %.sink, ptr noundef %4, ptr noundef %5, ptr noundef %6, ptr noundef %7, ptr noundef %8, ptr noundef %9, ptr noundef %10, ptr noundef %11, ptr noundef %12) #5
  ret ptr %30
}